; Function Attrs: mustprogress nofree norecurse nosync nounwind willreturn memory(read, argmem: readwrite, inaccessiblemem: none) uwtable
define hidden void @_Py_Specialize_UnpackSequence(i64 %0, ptr noundef captures(none) %1, i32 noundef %2) local_unnamed_addr #2 {
  %4 = inttoptr i64 %0 to ptr
  %5 = getelementptr i8, ptr %4, i64 8
  %.val15 = load ptr, ptr %5, align 8, !tbaa !9
  %.not = icmp eq ptr %.val15, @PyTuple_Type
  br i1 %.not, label %6, label %28

6:                                                ; preds = %3
  %7 = getelementptr i8, ptr %4, i64 16
  %.val17 = load i64, ptr %7, align 8, !tbaa !156
  %8 = sext i32 %2 to i64
  %.not14 = icmp eq i64 %.val17, %8
  br i1 %.not14, label %23, label %9

9:                                                ; preds = %6
  %10 = load i8, ptr %1, align 2, !tbaa !4
  %11 = zext i8 %10 to i64
  %12 = getelementptr [256 x i8], ptr @_PyOpcode_Deopt, i64 0, i64 %11
  %13 = load i8, ptr %12, align 1, !tbaa !4
  store i8 %13, ptr %1, align 2, !tbaa !4
  %14 = getelementptr i8, ptr %1, i64 2
  %.val.i = load i16, ptr %14, align 2, !tbaa !24
  %15 = and i16 %.val.i, 15
  %16 = icmp samesign ult i16 %15, 12
  br i1 %16, label %17, label %unspecialize.exit

17:                                               ; preds = %9
  %narrow.i.i.i = add nuw nsw i16 %15, 1
  %18 = zext nneg i16 %narrow.i.i.i to i32
  %notmask.i.i.i = shl nsw i32 -1, %18
  %19 = trunc i32 %notmask.i.i.i to i16
  %20 = xor i16 %19, -1
  %21 = shl nuw i16 %20, 4
  %22 = or i16 %21, %narrow.i.i.i
  br label %unspecialize.exit

unspecialize.exit:                                ; preds = %9, %17
  %.sroa.03.0.i.i.i = phi i16 [ %22, %17 ], [ -4, %9 ]
  store i16 %.sroa.03.0.i.i.i, ptr %14, align 2, !tbaa !24
  br label %62

23:                                               ; preds = %6
  %24 = icmp eq i32 %2, 2
  %25 = getelementptr i8, ptr %1, i64 2
  br i1 %24, label %26, label %27

26:                                               ; preds = %23
  store i8 -25, ptr %1, align 2, !tbaa !4
  store i16 832, ptr %25, align 2, !tbaa !24
  br label %62

27:                                               ; preds = %23
  store i8 -26, ptr %1, align 2, !tbaa !4
  store i16 832, ptr %25, align 2, !tbaa !24
  br label %62

28:                                               ; preds = %3
  %.not29 = icmp eq ptr %.val15, @PyList_Type
  br i1 %.not29, label %29, label %48

29:                                               ; preds = %28
  %30 = getelementptr i8, ptr %4, i64 16
  %.val16 = load i64, ptr %30, align 8, !tbaa !156
  %31 = sext i32 %2 to i64
  %.not13 = icmp eq i64 %.val16, %31
  br i1 %.not13, label %46, label %32

32:                                               ; preds = %29
  %33 = load i8, ptr %1, align 2, !tbaa !4
  %34 = zext i8 %33 to i64
  %35 = getelementptr [256 x i8], ptr @_PyOpcode_Deopt, i64 0, i64 %34
  %36 = load i8, ptr %35, align 1, !tbaa !4
  store i8 %36, ptr %1, align 2, !tbaa !4
  %37 = getelementptr i8, ptr %1, i64 2
  %.val.i19 = load i16, ptr %37, align 2, !tbaa !24
  %38 = and i16 %.val.i19, 15
  %39 = icmp samesign ult i16 %38, 12
  br i1 %39, label %40, label %unspecialize.exit23

40:                                               ; preds = %32
  %narrow.i.i.i21 = add nuw nsw i16 %38, 1
  %41 = zext nneg i16 %narrow.i.i.i21 to i32
  %notmask.i.i.i22 = shl nsw i32 -1, %41
  %42 = trunc i32 %notmask.i.i.i22 to i16
  %43 = xor i16 %42, -1
  %44 = shl nuw i16 %43, 4
  %45 = or i16 %44, %narrow.i.i.i21
  br label %unspecialize.exit23

unspecialize.exit23:                              ; preds = %32, %40
  %.sroa.03.0.i.i.i20 = phi i16 [ %45, %40 ], [ -4, %32 ]
  store i16 %.sroa.03.0.i.i.i20, ptr %37, align 2, !tbaa !24
  br label %62

46:                                               ; preds = %29
  store i8 -27, ptr %1, align 2, !tbaa !4
  %47 = getelementptr i8, ptr %1, i64 2
  store i16 832, ptr %47, align 2, !tbaa !24
  br label %62

48:                                               ; preds = %28
  %49 = load i8, ptr %1, align 2, !tbaa !4
  %50 = zext i8 %49 to i64
  %51 = getelementptr [256 x i8], ptr @_PyOpcode_Deopt, i64 0, i64 %50
  %52 = load i8, ptr %51, align 1, !tbaa !4
  store i8 %52, ptr %1, align 2, !tbaa !4
  %53 = getelementptr i8, ptr %1, i64 2
  %.val.i24 = load i16, ptr %53, align 2, !tbaa !24
  %54 = and i16 %.val.i24, 15
  %55 = icmp samesign ult i16 %54, 12
  br i1 %55, label %56, label %unspecialize.exit28

56:                                               ; preds = %48
  %narrow.i.i.i26 = add nuw nsw i16 %54, 1
  %57 = zext nneg i16 %narrow.i.i.i26 to i32
  %notmask.i.i.i27 = shl nsw i32 -1, %57
  %58 = trunc i32 %notmask.i.i.i27 to i16
  %59 = xor i16 %58, -1
  %60 = shl nuw i16 %59, 4
  %61 = or i16 %60, %narrow.i.i.i26
  br label %unspecialize.exit28

unspecialize.exit28:                              ; preds = %48, %56
  %.sroa.03.0.i.i.i25 = phi i16 [ %61, %56 ], [ -4, %48 ]
  store i16 %.sroa.03.0.i.i.i25, ptr %53, align 2, !tbaa !24
  br label %62

62:                                               ; preds = %unspecialize.exit28, %46, %unspecialize.exit23, %27, %26, %unspecialize.exit
  ret void
}